; Function Attrs: mustprogress uwtable
define internal void @_ZL17toolbar_button_cbPvS_S_(ptr noundef readnone %0, ptr noundef %1, ptr noundef readonly %2) #0 personality ptr @__gxx_personality_v0 {
  %4 = alloca %class.QString, align 16
  %5 = alloca %class.QString, align 16
  %6 = icmp ne ptr %0, null
  %7 = icmp ne ptr %1, null
  %or.cond = and i1 %6, %7
  %8 = icmp ne ptr %2, null
  %or.cond3 = and i1 %or.cond, %8
  br i1 %or.cond3, label %9, label %_ZN7QStringD2Ev.exit

9:                                                ; preds = %3
  %10 = load i32, ptr %2, align 8
  switch i32 %10, label %_ZN7QStringD2Ev.exit [
    i32 0, label %11
    i32 5, label %30
  ]

11:                                               ; preds = %9
  %12 = getelementptr inbounds i8, ptr %2, i64 8
  %13 = load ptr, ptr %12, align 8
  call void @llvm.lifetime.start.p0(i64 24, ptr nonnull %4)
  %.not.i.i = icmp eq ptr %13, null
  br i1 %.not.i.i, label %_ZN7QStringC2EPKc.exit, label %.split.i.i

.split.i.i:                                       ; preds = %11
  %14 = tail call noundef i64 @strlen(ptr noundef nonnull dereferenceable(1) %13) #16
  br label %_ZN7QStringC2EPKc.exit

_ZN7QStringC2EPKc.exit:                           ; preds = %11, %.split.i.i
  %.sink5.i.i = phi i64 [ %14, %.split.i.i ], [ 0, %11 ]
  call void @_ZN7QString8fromUtf8E14QByteArrayView(ptr dead_on_unwind nonnull writable sret(%class.QString) align 8 %4, i64 %.sink5.i.i, ptr %13)
  %15 = load <2 x ptr>, ptr %4, align 16
  store <2 x ptr> %15, ptr %5, align 16
  %16 = getelementptr inbounds i8, ptr %5, i64 16
  %17 = getelementptr inbounds i8, ptr %4, i64 16
  %18 = load i64, ptr %17, align 16
  store i64 %18, ptr %16, align 16
  call void @llvm.lifetime.end.p0(i64 24, ptr nonnull %4)
  invoke void @_ZN15QAbstractButton7setTextERK7QString(ptr noundef nonnull align 8 dereferenceable(40) %1, ptr noundef nonnull align 8 dereferenceable(24) %5)
          to label %19 unwind label %24

19:                                               ; preds = %_ZN7QStringC2EPKc.exit
  %20 = load ptr, ptr %5, align 16
  %.not.i.i.i = icmp eq ptr %20, null
  br i1 %.not.i.i.i, label %_ZN7QStringD2Ev.exit, label %_ZN17QArrayDataPointerIDsE5derefEv.exit.i.i

_ZN17QArrayDataPointerIDsE5derefEv.exit.i.i:      ; preds = %19
  %21 = atomicrmw sub ptr %20, i32 1 seq_cst, align 4
  %.not.i.i19 = icmp eq i32 %21, 1
  br i1 %.not.i.i19, label %22, label %_ZN7QStringD2Ev.exit

22:                                               ; preds = %_ZN17QArrayDataPointerIDsE5derefEv.exit.i.i
  %23 = load ptr, ptr %5, align 16
  call void @_ZN10QArrayData10deallocateEPS_xx(ptr noundef %23, i64 noundef 2, i64 noundef 8) #16
  br label %_ZN7QStringD2Ev.exit

24:                                               ; preds = %_ZN7QStringC2EPKc.exit
  %25 = landingpad { ptr, i32 }
          cleanup
  %26 = load ptr, ptr %5, align 16
  %.not.i.i.i20 = icmp eq ptr %26, null
  br i1 %.not.i.i.i20, label %_ZN7QStringD2Ev.exit23, label %_ZN17QArrayDataPointerIDsE5derefEv.exit.i.i21

_ZN17QArrayDataPointerIDsE5derefEv.exit.i.i21:    ; preds = %24
  %27 = atomicrmw sub ptr %26, i32 1 seq_cst, align 4
  %.not.i.i22 = icmp eq i32 %27, 1
  br i1 %.not.i.i22, label %28, label %_ZN7QStringD2Ev.exit23

28:                                               ; preds = %_ZN17QArrayDataPointerIDsE5derefEv.exit.i.i21
  %29 = load ptr, ptr %5, align 16
  call void @_ZN10QArrayData10deallocateEPS_xx(ptr noundef %29, i64 noundef 2, i64 noundef 8) #16
  br label %_ZN7QStringD2Ev.exit23

_ZN7QStringD2Ev.exit23:                           ; preds = %24, %_ZN17QArrayDataPointerIDsE5derefEv.exit.i.i21, %28
  resume { ptr, i32 } %25

30:                                               ; preds = %9
  %31 = getelementptr inbounds i8, ptr %2, i64 8
  %32 = load ptr, ptr %31, align 8
  %33 = ptrtoint ptr %32 to i64
  %34 = and i64 %33, 4294967295
  %35 = icmp eq i64 %34, 1
  tail call void @_ZN7QWidget10setEnabledEb(ptr noundef nonnull align 8 dereferenceable(40) %1, i1 noundef zeroext %35)
  br label %_ZN7QStringD2Ev.exit

_ZN7QStringD2Ev.exit:                             ; preds = %22, %_ZN17QArrayDataPointerIDsE5derefEv.exit.i.i, %19, %9, %30, %3
  ret void
}